; Function Attrs: mustprogress uwtable
define internal void @"_ZNSt17_Function_handlerIFNSt7__cxx1112basic_stringIcSt11char_traitsIcESaIcEEEPKN4Json5ValueEP11cmJSONStateEZN10JsonErrors14INVALID_OBJECTENSD_11ObjectErrorERKSt6vectorIS5_SaIS5_EEE3$_0E9_M_invokeERKSt9_Any_dataOS9_OSB_"(ptr dead_on_unwind noalias writable sret(%"class.std::__cxx11::basic_string") align 8 %0, ptr nonnull readnone align 8 captures(none) %1, ptr nonnull readnone align 8 captures(none) %2, ptr nonnull readnone align 8 captures(none) %3) #3 align 2 personality ptr @__gxx_personality_v0 {
  %5 = alloca %struct._Guard, align 8
  %6 = alloca %"class.std::allocator", align 1
  call void @llvm.lifetime.start.p0(i64 1, ptr nonnull %6), !noalias !142
  call void @_ZNSaIcEC1Ev(ptr noundef nonnull align 1 dereferenceable(1) %6) #17, !noalias !147
  %7 = invoke noundef ptr @_ZNSt7__cxx1112basic_stringIcSt11char_traitsIcESaIcEE13_M_local_dataEv(ptr noundef nonnull align 8 dereferenceable(32) %0)
          to label %.noexc.i.i.i unwind label %16

.noexc.i.i.i:                                     ; preds = %4
  invoke void @_ZNSt7__cxx1112basic_stringIcSt11char_traitsIcESaIcEE12_Alloc_hiderC1EPcRKS3_(ptr noundef nonnull align 8 dereferenceable(32) %0, ptr noundef %7, ptr noundef nonnull align 1 dereferenceable(1) %6)
          to label %.noexc1.i.i.i unwind label %16

.noexc1.i.i.i:                                    ; preds = %.noexc.i.i.i
  call void @llvm.lifetime.start.p0(i64 8, ptr nonnull %5), !noalias !142
  %8 = invoke noundef ptr @_ZNSt7__cxx1112basic_stringIcSt11char_traitsIcESaIcEE13_M_local_dataEv(ptr noundef nonnull align 8 dereferenceable(32) %0)
          to label %12 unwind label %9

9:                                                ; preds = %.noexc1.i.i.i
  %10 = landingpad { ptr, i32 }
          catch ptr null
  %11 = extractvalue { ptr, i32 } %10, 0
  call void @__clang_call_terminate(ptr %11) #18
  unreachable

12:                                               ; preds = %.noexc1.i.i.i
  store ptr %0, ptr %5, align 8, !noalias !142
  %13 = invoke noundef ptr @_ZNKSt7__cxx1112basic_stringIcSt11char_traitsIcESaIcEE7_M_dataEv(ptr noundef nonnull align 8 dereferenceable(32) %0)
          to label %14 unwind label %.body.i.i

14:                                               ; preds = %12
  call void @_ZNSt7__cxx1112basic_stringIcSt11char_traitsIcESaIcEE13_S_copy_charsEPcPKcS7_(ptr noundef %13, ptr noundef nonnull @.str.14, ptr noundef nonnull getelementptr inbounds nuw (i8, ptr @.str.14, i64 6)) #17
  store ptr null, ptr %5, align 8, !noalias !142
  invoke void @_ZNSt7__cxx1112basic_stringIcSt11char_traitsIcESaIcEE13_M_set_lengthEm(ptr noundef nonnull align 8 dereferenceable(32) %0, i64 noundef 6)
          to label %"_ZSt10__invoke_rINSt7__cxx1112basic_stringIcSt11char_traitsIcESaIcEEERZN10JsonErrors14INVALID_OBJECTENS6_11ObjectErrorERKSt6vectorIS5_SaIS5_EEE3$_0JPKN4Json5ValueEP11cmJSONStateEENSt9enable_ifIX16is_invocable_r_vIT_T0_DpT1_EESM_E4typeEOSN_DpOSO_.exit" unwind label %.body.i.i

.body.i.i:                                        ; preds = %14, %12
  %15 = landingpad { ptr, i32 }
          cleanup
  call void @_ZZNSt7__cxx1112basic_stringIcSt11char_traitsIcESaIcEE12_M_constructIPKcEEvT_S8_St20forward_iterator_tagEN6_GuardD2Ev(ptr noundef nonnull align 8 dereferenceable(8) %5) #17
  call void @_ZNSaIcED2Ev(ptr noundef nonnull align 8 dereferenceable(32) %0) #17
  br label %.body.i.i.i

16:                                               ; preds = %.noexc.i.i.i, %4
  %17 = landingpad { ptr, i32 }
          cleanup
  br label %.body.i.i.i

.body.i.i.i:                                      ; preds = %16, %.body.i.i
  %eh.lpad-body.i.i.i = phi { ptr, i32 } [ %17, %16 ], [ %15, %.body.i.i ]
  call void @_ZNSaIcED1Ev(ptr noundef nonnull align 1 dereferenceable(1) %6) #17
  resume { ptr, i32 } %eh.lpad-body.i.i.i

"_ZSt10__invoke_rINSt7__cxx1112basic_stringIcSt11char_traitsIcESaIcEEERZN10JsonErrors14INVALID_OBJECTENS6_11ObjectErrorERKSt6vectorIS5_SaIS5_EEE3$_0JPKN4Json5ValueEP11cmJSONStateEENSt9enable_ifIX16is_invocable_r_vIT_T0_DpT1_EESM_E4typeEOSN_DpOSO_.exit": ; preds = %14
  call void @llvm.lifetime.end.p0(i64 8, ptr nonnull %5), !noalias !142
  call void @_ZNSaIcED1Ev(ptr noundef nonnull align 1 dereferenceable(1) %6) #17
  call void @llvm.lifetime.end.p0(i64 1, ptr nonnull %6), !noalias !142
  ret void
}